target datalayout = "e-m:e-p270:32:32-p271:32:32-p272:64:64-i64:64-i128:128-f80:128-n8:16:32:64-S128"
target triple = "x86_64-pc-linux-gnu"

%struct.except_t = type { %struct.except_id_t, ptr, ptr }
%struct.except_id_t = type { i64, i64 }

; Function Attrs: noreturn nounwind uwtable
define void @except_throwd(i64 noundef %0, i64 noundef %1, ptr noundef %2, ptr noundef %3) #2 {
  %5 = alloca i64, align 8
  %6 = alloca i64, align 8
  %7 = alloca ptr, align 8
  %8 = alloca ptr, align 8
  %9 = alloca %struct.except_t, align 8
  store i64 %0, ptr %5, align 8
  store i64 %1, ptr %6, align 8
  store ptr %2, ptr %7, align 8
  store ptr %3, ptr %8, align 8
  %10 = load i64, ptr %5, align 8
  %11 = getelementptr inbounds %struct.except_t, ptr %9, i32 0, i32 0
  %12 = getelementptr inbounds %struct.except_id_t, ptr %11, i32 0, i32 0
  store volatile i64 %10, ptr %12, align 8
  %13 = load i64, ptr %6, align 8
  %14 = getelementptr inbounds %struct.except_t, ptr %9, i32 0, i32 0
  %15 = getelementptr inbounds %struct.except_id_t, ptr %14, i32 0, i32 1
  store volatile i64 %13, ptr %15, align 8
  %16 = load ptr, ptr %7, align 8
  %17 = getelementptr inbounds %struct.except_t, ptr %9, i32 0, i32 1
  store volatile ptr %16, ptr %17, align 8
  %18 = load ptr, ptr %8, align 8
  %19 = getelementptr inbounds %struct.except_t, ptr %9, i32 0, i32 2
  store volatile ptr %18, ptr %19, align 8
  call void @do_throw(ptr noundef %9) #9
  unreachable
}