; Function Attrs: noreturn nounwind uwtable
define void @except_throwd(i64 noundef %0, i64 noundef %1, ptr noundef %2, ptr noundef %3) local_unnamed_addr #5 {
  %5 = alloca %struct.except_t, align 8
  store volatile i64 %0, ptr %5, align 8
  %6 = getelementptr inbounds nuw i8, ptr %5, i64 8
  store volatile i64 %1, ptr %6, align 8
  %7 = getelementptr inbounds nuw i8, ptr %5, i64 16
  store volatile ptr %2, ptr %7, align 8
  %8 = getelementptr inbounds nuw i8, ptr %5, i64 24
  store volatile ptr %3, ptr %8, align 8
  call fastcc void @do_throw(ptr noundef nonnull %5) #18
  unreachable
}